target datalayout = "e-m:e-p270:32:32-p271:32:32-p272:64:64-i64:64-i128:128-f80:128-n8:16:32:64-S128"
target triple = "x86_64-pc-linux-gnu"

%"class.std::__cxx11::basic_string" = type { %"struct.std::__cxx11::basic_string<char>::_Alloc_hider", i64, %union.anon }
%"struct.std::__cxx11::basic_string<char>::_Alloc_hider" = type { ptr }
%union.anon = type { i64, [8 x i8] }
%"struct.std::__detail::_Hash_node_base" = type { ptr }
%"struct.std::__detail::_Prime_rehash_policy" = type { float, i64 }
%"class.std::vector.52" = type { %"struct.std::_Vector_base.53" }
%"struct.std::_Vector_base.53" = type { %"struct.std::_Vector_base<unsigned long, std::allocator<unsigned long>>::_Vector_impl" }
%"struct.std::_Vector_base<unsigned long, std::allocator<unsigned long>>::_Vector_impl" = type { %"struct.std::_Vector_base<unsigned long, std::allocator<unsigned long>>::_Vector_impl_data" }
%"struct.std::_Vector_base<unsigned long, std::allocator<unsigned long>>::_Vector_impl_data" = type { ptr, ptr, ptr }
%"class.std::vector.65" = type { %"struct.std::_Vector_base.66" }
%"struct.std::_Vector_base.66" = type { %"struct.std::_Vector_base<std::__cxx11::basic_string<char>, std::allocator<std::__cxx11::basic_string<char>>>::_Vector_impl" }
%"struct.std::_Vector_base<std::__cxx11::basic_string<char>, std::allocator<std::__cxx11::basic_string<char>>>::_Vector_impl" = type { %"struct.std::_Vector_base<std::__cxx11::basic_string<char>, std::allocator<std::__cxx11::basic_string<char>>>::_Vector_impl_data" }
%"struct.std::_Vector_base<std::__cxx11::basic_string<char>, std::allocator<std::__cxx11::basic_string<char>>>::_Vector_impl_data" = type { ptr, ptr, ptr }
%"class.rocksdb::Status" = type { i8, i8, i8, i8, i8, i8, %"class.std::unique_ptr" }
%"class.std::unique_ptr" = type { %"struct.std::__uniq_ptr_data" }
%"struct.std::__uniq_ptr_data" = type { %"class.std::__uniq_ptr_impl" }
%"class.std::__uniq_ptr_impl" = type { %"class.std::tuple" }
%"class.std::tuple" = type { %"struct.std::_Tuple_impl" }
%"struct.std::_Tuple_impl" = type { %"struct.std::_Head_base.4" }
%"struct.std::_Head_base.4" = type { ptr }
%"struct.rocksdb::CompactionJobStats" = type { i64, i64, i8, i64, i64, i64, i64, i64, i64, i64, i64, i64, i8, i8, i8, i64, i64, i64, i64, i64, i64, i64, i64, i64, i64, i64, i64, i64, i64, i64, %"class.std::__cxx11::basic_string", %"class.std::__cxx11::basic_string", i64, i64 }
%"class.rocksdb::IOStatus" = type { %"class.rocksdb::Status" }
%"class.std::shared_ptr.101" = type { %"class.std::__shared_ptr.102" }
%"class.std::__shared_ptr.102" = type { ptr, %"class.std::__shared_count" }
%"class.std::__shared_count" = type { ptr }
%"struct.rocksdb::IOOptions" = type <{ %"class.std::chrono::duration", i8, [3 x i8], i32, i8, [7 x i8], %"class.std::unordered_map.211", i8, i8, i8, i8, [4 x i8] }>
%"class.std::chrono::duration" = type { i64 }
%"class.std::unordered_map.211" = type { %"class.std::_Hashtable.212" }
%"class.std::_Hashtable.212" = type { ptr, i64, %"struct.std::__detail::_Hash_node_base", i64, %"struct.std::__detail::_Prime_rehash_policy", ptr }
%"class.rocksdb::CompactionJob" = type { ptr, ptr, %"struct.rocksdb::InternalStats::CompactionStatsFull", ptr, %"struct.rocksdb::MutableDBOptions", ptr, ptr, ptr, i8, i32, %"class.rocksdb::IOStatus", ptr, i32, ptr, %"class.std::__cxx11::basic_string", %"class.std::__cxx11::basic_string", %"struct.rocksdb::FileOptions", ptr, %"class.std::shared_ptr.225", %"class.rocksdb::FileSystemPtr", %"struct.rocksdb::FileOptions", ptr, ptr, ptr, ptr, ptr, ptr, ptr, %"class.std::vector.52", i64, i64, ptr, ptr, %"class.std::shared_ptr.92", ptr, i8, i8, %"class.std::vector.65", i32, %"class.std::__cxx11::basic_string", %"class.std::__cxx11::basic_string", ptr, i32, ptr, ptr, %"class.rocksdb::SeqnoToTimeMapping", i64, i64, i64 }
%"struct.rocksdb::InternalStats::CompactionStatsFull" = type { %"struct.rocksdb::InternalStats::CompactionStats", i8, [7 x i8], %"struct.rocksdb::InternalStats::CompactionStats" }
%"struct.rocksdb::InternalStats::CompactionStats" = type <{ i64, i64, i64, i64, i64, i64, i64, i64, i64, i64, i32, i32, i32, i32, i32, i32, i64, i64, i64, i32, [20 x i32], [4 x i8] }>
%"struct.rocksdb::MutableDBOptions" = type { i32, i32, i32, i8, i64, i64, i64, i64, i32, i32, i64, i32, i64, i64, i8, i64, i32, %"class.std::__cxx11::basic_string" }
%"class.std::shared_ptr.225" = type { %"class.std::__shared_ptr.226" }
%"class.std::__shared_ptr.226" = type { ptr, %"class.std::__shared_count" }
%"class.rocksdb::FileSystemPtr" = type { %"class.std::shared_ptr.101", %"class.std::shared_ptr.225", %"class.std::shared_ptr.228" }
%"class.std::shared_ptr.228" = type { %"class.std::__shared_ptr.229" }
%"class.std::__shared_ptr.229" = type { ptr, %"class.std::__shared_count" }
%"struct.rocksdb::FileOptions" = type <{ %"struct.rocksdb::EnvOptions", %"struct.rocksdb::IOOptions", i8, i8, [6 x i8] }>
%"struct.rocksdb::EnvOptions" = type { i8, i8, i8, i8, i8, i8, i64, i8, i8, i64, i64, ptr }
%"class.std::shared_ptr.92" = type { %"class.std::__shared_ptr.93" }
%"class.std::__shared_ptr.93" = type { ptr, %"class.std::__shared_count" }
%"class.rocksdb::SeqnoToTimeMapping" = type <{ i64, i64, %"class.std::deque.231", i8, [7 x i8] }>
%"class.std::deque.231" = type { %"class.std::_Deque_base.232" }
%"class.std::_Deque_base.232" = type { %"struct.std::_Deque_base<rocksdb::SeqnoToTimeMapping::SeqnoTimePair, std::allocator<rocksdb::SeqnoToTimeMapping::SeqnoTimePair>>::_Deque_impl" }
%"struct.std::_Deque_base<rocksdb::SeqnoToTimeMapping::SeqnoTimePair, std::allocator<rocksdb::SeqnoToTimeMapping::SeqnoTimePair>>::_Deque_impl" = type { %"struct.std::_Deque_base<rocksdb::SeqnoToTimeMapping::SeqnoTimePair, std::allocator<rocksdb::SeqnoToTimeMapping::SeqnoTimePair>>::_Deque_impl_data" }
%"struct.std::_Deque_base<rocksdb::SeqnoToTimeMapping::SeqnoTimePair, std::allocator<rocksdb::SeqnoToTimeMapping::SeqnoTimePair>>::_Deque_impl_data" = type { ptr, i64, %"struct.std::_Deque_iterator.236", %"struct.std::_Deque_iterator.236" }
%"struct.std::_Deque_iterator.236" = type { ptr, ptr, ptr, ptr }

; Function Attrs: mustprogress nounwind uwtable
define void @_ZNK7rocksdb30CompactionServiceCompactionJob24UpdateCompactionJobStatsERKNS_13InternalStats15CompactionStatsE(ptr noundef nonnull align 8 dereferenceable(1552) %0, ptr noundef nonnull align 8 dereferenceable(212) %1) unnamed_addr #3 align 2 {
  %3 = alloca ptr, align 8
  %4 = alloca ptr, align 8
  store ptr %0, ptr %3, align 8, !tbaa !578
  store ptr %1, ptr %4, align 8, !tbaa !586
  %5 = load ptr, ptr %3, align 8
  %6 = load ptr, ptr %4, align 8, !tbaa !586
  %7 = getelementptr inbounds nuw %"struct.rocksdb::InternalStats::CompactionStats", ptr %6, i32 0, i32 0
  %8 = load i64, ptr %7, align 8, !tbaa !588
  %9 = getelementptr inbounds nuw %"class.rocksdb::CompactionJob", ptr %5, i32 0, i32 11
  %10 = load ptr, ptr %9, align 8, !tbaa !589
  %11 = getelementptr inbounds nuw %"struct.rocksdb::CompactionJobStats", ptr %10, i32 0, i32 0
  store i64 %8, ptr %11, align 8, !tbaa !590
  %12 = load ptr, ptr %4, align 8, !tbaa !586
  %13 = getelementptr inbounds nuw %"struct.rocksdb::InternalStats::CompactionStats", ptr %12, i32 0, i32 7
  %14 = load i64, ptr %13, align 8, !tbaa !591
  %15 = getelementptr inbounds nuw %"class.rocksdb::CompactionJob", ptr %5, i32 0, i32 11
  %16 = load ptr, ptr %15, align 8, !tbaa !589
  %17 = getelementptr inbounds nuw %"struct.rocksdb::CompactionJobStats", ptr %16, i32 0, i32 17
  store i64 %14, ptr %17, align 8, !tbaa !592
  %18 = load ptr, ptr %4, align 8, !tbaa !586
  %19 = getelementptr inbounds nuw %"struct.rocksdb::InternalStats::CompactionStats", ptr %18, i32 0, i32 8
  %20 = load i64, ptr %19, align 8, !tbaa !593
  %21 = getelementptr inbounds nuw %"class.rocksdb::CompactionJob", ptr %5, i32 0, i32 11
  %22 = load ptr, ptr %21, align 8, !tbaa !589
  %23 = getelementptr inbounds nuw %"struct.rocksdb::CompactionJobStats", ptr %22, i32 0, i32 18
  store i64 %20, ptr %23, align 8, !tbaa !594
  %24 = load ptr, ptr %4, align 8, !tbaa !586
  %25 = getelementptr inbounds nuw %"struct.rocksdb::InternalStats::CompactionStats", ptr %24, i32 0, i32 18
  %26 = load i64, ptr %25, align 8, !tbaa !595
  %27 = getelementptr inbounds nuw %"class.rocksdb::CompactionJob", ptr %5, i32 0, i32 11
  %28 = load ptr, ptr %27, align 8, !tbaa !589
  %29 = getelementptr inbounds nuw %"struct.rocksdb::CompactionJobStats", ptr %28, i32 0, i32 9
  store i64 %26, ptr %29, align 8, !tbaa !596
  %30 = load ptr, ptr %4, align 8, !tbaa !586
  %31 = getelementptr inbounds nuw %"struct.rocksdb::InternalStats::CompactionStats", ptr %30, i32 0, i32 14
  %32 = load i32, ptr %31, align 8, !tbaa !597
  %33 = sext i32 %32 to i64
  %34 = getelementptr inbounds nuw %"class.rocksdb::CompactionJob", ptr %5, i32 0, i32 11
  %35 = load ptr, ptr %34, align 8, !tbaa !589
  %36 = getelementptr inbounds nuw %"struct.rocksdb::CompactionJobStats", ptr %35, i32 0, i32 10
  store i64 %33, ptr %36, align 8, !tbaa !598
  %37 = load ptr, ptr %4, align 8, !tbaa !586
  %38 = getelementptr inbounds nuw %"struct.rocksdb::InternalStats::CompactionStats", ptr %37, i32 0, i32 15
  %39 = load i32, ptr %38, align 4, !tbaa !599
  %40 = sext i32 %39 to i64
  %41 = getelementptr inbounds nuw %"class.rocksdb::CompactionJob", ptr %5, i32 0, i32 11
  %42 = load ptr, ptr %41, align 8, !tbaa !589
  %43 = getelementptr inbounds nuw %"struct.rocksdb::CompactionJobStats", ptr %42, i32 0, i32 11
  store i64 %40, ptr %43, align 8, !tbaa !600
  ret void
}