; Function Attrs: mustprogress nofree norecurse nosync nounwind willreturn memory(write, argmem: readwrite, inaccessiblemem: none) uwtable
define void @_ZNK7rocksdb30CompactionServiceCompactionJob24UpdateCompactionJobStatsERKNS_13InternalStats15CompactionStatsE(ptr noundef nonnull readonly align 8 captures(none) dereferenceable(1552) %0, ptr noundef nonnull readonly align 8 captures(none) dereferenceable(212) %1) unnamed_addr #10 align 2 {
  %3 = load i64, ptr %1, align 8, !tbaa !575
  %4 = getelementptr inbounds nuw i8, ptr %0, i64 656
  %5 = load ptr, ptr %4, align 8, !tbaa !576
  store i64 %3, ptr %5, align 8, !tbaa !577
  %6 = getelementptr inbounds nuw i8, ptr %1, i64 56
  %7 = load i64, ptr %6, align 8, !tbaa !578
  %8 = getelementptr inbounds nuw i8, ptr %5, i64 120
  store i64 %7, ptr %8, align 8, !tbaa !579
  %9 = getelementptr inbounds nuw i8, ptr %1, i64 64
  %10 = load i64, ptr %9, align 8, !tbaa !580
  %11 = getelementptr inbounds nuw i8, ptr %5, i64 128
  store i64 %10, ptr %11, align 8, !tbaa !581
  %12 = getelementptr inbounds nuw i8, ptr %1, i64 120
  %13 = load i64, ptr %12, align 8, !tbaa !582
  %14 = getelementptr inbounds nuw i8, ptr %5, i64 72
  store i64 %13, ptr %14, align 8, !tbaa !583
  %15 = getelementptr inbounds nuw i8, ptr %1, i64 96
  %16 = load i32, ptr %15, align 8, !tbaa !584
  %17 = sext i32 %16 to i64
  %18 = getelementptr inbounds nuw i8, ptr %5, i64 80
  store i64 %17, ptr %18, align 8, !tbaa !585
  %19 = getelementptr inbounds nuw i8, ptr %1, i64 100
  %20 = load i32, ptr %19, align 4, !tbaa !586
  %21 = sext i32 %20 to i64
  %22 = getelementptr inbounds nuw i8, ptr %5, i64 88
  store i64 %21, ptr %22, align 8, !tbaa !587
  ret void
}